; ModuleID = '29/1481.c'
source_filename = "29/1481.c"
target datalayout = "e-m:e-p270:32:32-p271:32:32-p272:64:64-i64:64-f80:128-n8:16:32:64-S128"
target triple = "x86_64-pc-linux-gnu"

@.str = private unnamed_addr constant [3 x i8] c"%d\00", align 1
@.str.1 = private unnamed_addr constant [7 x i8] c"%.3lf\0A\00", align 1

; Function Attrs: noinline nounwind uwtable
define dso_local i32 @main() #0 {
  %1 = alloca i32, align 4
  %2 = alloca i32, align 4
  %3 = alloca i32, align 4
  %4 = alloca i32, align 4
  %5 = alloca i32, align 4
  %6 = alloca i32, align 4
  %7 = alloca i32, align 4
  %8 = alloca i32, align 4
  %9 = alloca i32, align 4
  %10 = alloca [100 x double], align 16
  %11 = alloca double, align 8
  store i32 0, i32* %1, align 4
  %12 = getelementptr inbounds [100 x double], [100 x double]* %10, i64 0, i64 0
  store double 1.000000e+00, double* %12, align 16
  %13 = getelementptr inbounds [100 x double], [100 x double]* %10, i64 0, i64 1
  store double 2.000000e+00, double* %13, align 8
  store i32 2, i32* %4, align 4
  br label %14

14:                                               ; preds = %32, %0
  %15 = load i32, i32* %4, align 4
  %16 = icmp sle i32 %15, 99
  br i1 %16, label %17, label %35

17:                                               ; preds = %14
  %18 = load i32, i32* %4, align 4
  %19 = sub nsw i32 %18, 1
  %20 = sext i32 %19 to i64
  %21 = getelementptr inbounds [100 x double], [100 x double]* %10, i64 0, i64 %20
  %22 = load double, double* %21, align 8
  %23 = load i32, i32* %4, align 4
  %24 = sub nsw i32 %23, 2
  %25 = sext i32 %24 to i64
  %26 = getelementptr inbounds [100 x double], [100 x double]* %10, i64 0, i64 %25
  %27 = load double, double* %26, align 8
  %28 = fadd double %22, %27
  %29 = load i32, i32* %4, align 4
  %30 = sext i32 %29 to i64
  %31 = getelementptr inbounds [100 x double], [100 x double]* %10, i64 0, i64 %30
  store double %28, double* %31, align 8
  br label %32

32:                                               ; preds = %17
  %33 = load i32, i32* %4, align 4
  %34 = add nsw i32 %33, 1
  store i32 %34, i32* %4, align 4
  br label %14

35:                                               ; preds = %14
  %36 = call i32 (i8*, ...) @__isoc99_scanf(i8* getelementptr inbounds ([3 x i8], [3 x i8]* @.str, i64 0, i64 0), i32* %2)
  store i32 0, i32* %4, align 4
  br label %37

37:                                               ; preds = %68, %35
  %38 = load i32, i32* %4, align 4
  %39 = load i32, i32* %2, align 4
  %40 = sub nsw i32 %39, 1
  %41 = icmp sle i32 %38, %40
  br i1 %41, label %42, label %71

42:                                               ; preds = %37
  store double 0.000000e+00, double* %11, align 8
  %43 = call i32 (i8*, ...) @__isoc99_scanf(i8* getelementptr inbounds ([3 x i8], [3 x i8]* @.str, i64 0, i64 0), i32* %3)
  store i32 0, i32* %5, align 4
  br label %44

44:                                               ; preds = %62, %42
  %45 = load i32, i32* %5, align 4
  %46 = load i32, i32* %3, align 4
  %47 = sub nsw i32 %46, 1
  %48 = icmp sle i32 %45, %47
  br i1 %48, label %49, label %65

49:                                               ; preds = %44
  %50 = load i32, i32* %5, align 4
  %51 = add nsw i32 %50, 1
  %52 = sext i32 %51 to i64
  %53 = getelementptr inbounds [100 x double], [100 x double]* %10, i64 0, i64 %52
  %54 = load double, double* %53, align 8
  %55 = load i32, i32* %5, align 4
  %56 = sext i32 %55 to i64
  %57 = getelementptr inbounds [100 x double], [100 x double]* %10, i64 0, i64 %56
  %58 = load double, double* %57, align 8
  %59 = fdiv double %54, %58
  %60 = load double, double* %11, align 8
  %61 = fadd double %60, %59
  store double %61, double* %11, align 8
  br label %62

62:                                               ; preds = %49
  %63 = load i32, i32* %5, align 4
  %64 = add nsw i32 %63, 1
  store i32 %64, i32* %5, align 4
  br label %44

65:                                               ; preds = %44
  %66 = load double, double* %11, align 8
  %67 = call i32 (i8*, ...) @printf(i8* getelementptr inbounds ([7 x i8], [7 x i8]* @.str.1, i64 0, i64 0), double %66)
  br label %68

68:                                               ; preds = %65
  %69 = load i32, i32* %4, align 4
  %70 = add nsw i32 %69, 1
  store i32 %70, i32* %4, align 4
  br label %37

71:                                               ; preds = %37
  %72 = load i32, i32* %1, align 4
  ret i32 %72
}

declare dso_local i32 @__isoc99_scanf(i8*, ...) #1

declare dso_local i32 @printf(i8*, ...) #1


!llvm.module.flags = !{!0}
!llvm.ident = !{!1}

!0 = !{i32 1, !"wchar_size", i32 4}
!1 = !{!"clang version 10.0.0-4ubuntu1 "}
